(lp0
S'poi'
p1
aS'salary'
p2
aS'exercised_stock_options'
p3
aS'bonus'
p4
aS'shared_receipt_with_poi'
p5
aS'fraction_emails_from_poi_to_person'
p6
aS'fraction_emails_from_person_to_poi'
p7
aS'total_stock_value'
p8
aS'expenses'
p9
aS'long_term_incentive'
p10
a.